; Function Attrs: nounwind uwtable
define internal noundef i32 @fetch_finished(i32 noundef %0, ptr noundef %1, ptr noundef writeonly captures(none) %2, ptr noundef %3) #0 {
  %.not = icmp eq i32 %0, 0
  br i1 %.not, label %10, label %5

5:                                                ; preds = %4
  %6 = load i32, ptr @git_gettext_enabled, align 4, !tbaa !9
  %.not4.i = icmp eq i32 %6, 0
  br i1 %.not4.i, label %_.exit, label %7

7:                                                ; preds = %5
  %8 = tail call ptr @dcgettext(ptr noundef null, ptr noundef nonnull @.str.266, i32 noundef 5) #20
  br label %_.exit

_.exit:                                           ; preds = %5, %7
  %.0.i = phi ptr [ %8, %7 ], [ @.str.266, %5 ]
  tail call void (ptr, ptr, ...) @strbuf_addf(ptr noundef %1, ptr noundef %.0.i, ptr noundef %3, i32 noundef %0) #20
  %9 = getelementptr inbounds nuw i8, ptr %2, i64 20
  store i32 -1, ptr %9, align 4, !tbaa !168
  br label %10

10:                                               ; preds = %_.exit, %4
  ret i32 0
}